target datalayout = "e-m:e-p270:32:32-p271:32:32-p272:64:64-i64:64-i128:128-f80:128-n8:16:32:64-S128"
target triple = "x86_64-pc-linux-gnu"

%struct.err_state_st = type { [16 x %struct.err_error_st], i32, i32, ptr }
%struct.err_error_st = type { ptr, ptr, i32, i16, i8 }

; Function Attrs: nounwind uwtable
define internal void @err_clear_data(ptr noundef %0) #0 {
  %2 = alloca ptr, align 8
  store ptr %0, ptr %2, align 8, !tbaa !20
  %3 = load ptr, ptr %2, align 8, !tbaa !20
  %4 = getelementptr inbounds nuw %struct.err_error_st, ptr %3, i32 0, i32 4
  %5 = load i8, ptr %4, align 2, !tbaa !30
  %6 = zext i8 %5 to i32
  %7 = and i32 %6, 16
  %8 = icmp ne i32 %7, 0
  br i1 %8, label %9, label %13

9:                                                ; preds = %1
  %10 = load ptr, ptr %2, align 8, !tbaa !20
  %11 = getelementptr inbounds nuw %struct.err_error_st, ptr %10, i32 0, i32 1
  %12 = load ptr, ptr %11, align 8, !tbaa !29
  call void @free(ptr noundef %12) #12
  br label %13

13:                                               ; preds = %9, %1
  %14 = load ptr, ptr %2, align 8, !tbaa !20
  %15 = getelementptr inbounds nuw %struct.err_error_st, ptr %14, i32 0, i32 1
  store ptr null, ptr %15, align 8, !tbaa !29
  %16 = load ptr, ptr %2, align 8, !tbaa !20
  %17 = getelementptr inbounds nuw %struct.err_error_st, ptr %16, i32 0, i32 4
  %18 = load i8, ptr %17, align 2, !tbaa !30
  %19 = zext i8 %18 to i32
  %20 = and i32 %19, -17
  %21 = trunc i32 %20 to i8
  store i8 %21, ptr %17, align 2, !tbaa !30
  ret void
}

; Function Attrs: nounwind uwtable
define internal void @err_clear(ptr noundef %0) #0 {
  %2 = alloca ptr, align 8
  store ptr %0, ptr %2, align 8, !tbaa !20
  %3 = load ptr, ptr %2, align 8, !tbaa !20
  call void @err_clear_data(ptr noundef %3)
  %4 = load ptr, ptr %2, align 8, !tbaa !20
  call void @llvm.memset.p0.i64(ptr align 8 %4, i8 0, i64 24, i1 false)
  ret void
}

; Function Attrs: nounwind uwtable
define internal ptr @err_get_state() #0 {
  %1 = alloca ptr, align 8
  %2 = alloca ptr, align 8
  %3 = alloca i32, align 4
  call void @llvm.lifetime.start.p0(i64 8, ptr %2) #12
  %4 = call ptr @CRYPTO_get_thread_local(i32 noundef 0)
  store ptr %4, ptr %2, align 8, !tbaa !15
  %5 = load ptr, ptr %2, align 8, !tbaa !15
  %6 = icmp eq ptr %5, null
  br i1 %6, label %7, label %19

7:                                                ; preds = %0
  %8 = call noalias ptr @malloc(i64 noundef 400) #13
  store ptr %8, ptr %2, align 8, !tbaa !15
  %9 = load ptr, ptr %2, align 8, !tbaa !15
  %10 = icmp eq ptr %9, null
  br i1 %10, label %11, label %12

11:                                               ; preds = %7
  store ptr null, ptr %1, align 8
  store i32 1, ptr %3, align 4
  br label %21

12:                                               ; preds = %7
  %13 = load ptr, ptr %2, align 8, !tbaa !15
  call void @llvm.memset.p0.i64(ptr align 8 %13, i8 0, i64 400, i1 false)
  %14 = load ptr, ptr %2, align 8, !tbaa !15
  %15 = call i32 @CRYPTO_set_thread_local(i32 noundef 0, ptr noundef %14, ptr noundef @err_state_free)
  %16 = icmp ne i32 %15, 0
  br i1 %16, label %18, label %17

17:                                               ; preds = %12
  store ptr null, ptr %1, align 8
  store i32 1, ptr %3, align 4
  br label %21

18:                                               ; preds = %12
  br label %19

19:                                               ; preds = %18, %0
  %20 = load ptr, ptr %2, align 8, !tbaa !15
  store ptr %20, ptr %1, align 8
  store i32 1, ptr %3, align 4
  br label %21

21:                                               ; preds = %19, %17, %11
  call void @llvm.lifetime.end.p0(i64 8, ptr %2) #12
  %22 = load ptr, ptr %1, align 8
  ret ptr %22
}

; Function Attrs: nounwind uwtable
define hidden void @ERR_put_error(i32 noundef %0, i32 noundef %1, i32 noundef %2, ptr noundef %3, i32 noundef %4) #0 {
  %6 = alloca i32, align 4
  %7 = alloca i32, align 4
  %8 = alloca i32, align 4
  %9 = alloca ptr, align 8
  %10 = alloca i32, align 4
  %11 = alloca ptr, align 8
  %12 = alloca ptr, align 8
  %13 = alloca i32, align 4
  store i32 %0, ptr %6, align 4, !tbaa !6
  store i32 %1, ptr %7, align 4, !tbaa !6
  store i32 %2, ptr %8, align 4, !tbaa !6
  store ptr %3, ptr %9, align 8, !tbaa !27
  store i32 %4, ptr %10, align 4, !tbaa !6
  call void @llvm.lifetime.start.p0(i64 8, ptr %11) #12
  %14 = call ptr @err_get_state()
  store ptr %14, ptr %11, align 8, !tbaa !15
  call void @llvm.lifetime.start.p0(i64 8, ptr %12) #12
  %15 = load ptr, ptr %11, align 8, !tbaa !15
  %16 = icmp eq ptr %15, null
  br i1 %16, label %17, label %18

17:                                               ; preds = %5
  store i32 1, ptr %13, align 4
  br label %74

18:                                               ; preds = %5
  %19 = load i32, ptr %6, align 4, !tbaa !6
  %20 = icmp eq i32 %19, 2
  br i1 %20, label %21, label %27

21:                                               ; preds = %18
  %22 = load i32, ptr %8, align 4, !tbaa !6
  %23 = icmp eq i32 %22, 0
  br i1 %23, label %24, label %27

24:                                               ; preds = %21
  %25 = call ptr @__errno_location() #14
  %26 = load i32, ptr %25, align 4, !tbaa !6
  store i32 %26, ptr %8, align 4, !tbaa !6
  br label %27

27:                                               ; preds = %24, %21, %18
  %28 = load ptr, ptr %11, align 8, !tbaa !15
  %29 = getelementptr inbounds nuw %struct.err_state_st, ptr %28, i32 0, i32 1
  %30 = load i32, ptr %29, align 8, !tbaa !19
  %31 = add i32 %30, 1
  %32 = urem i32 %31, 16
  %33 = load ptr, ptr %11, align 8, !tbaa !15
  %34 = getelementptr inbounds nuw %struct.err_state_st, ptr %33, i32 0, i32 1
  store i32 %32, ptr %34, align 8, !tbaa !19
  %35 = load ptr, ptr %11, align 8, !tbaa !15
  %36 = getelementptr inbounds nuw %struct.err_state_st, ptr %35, i32 0, i32 1
  %37 = load i32, ptr %36, align 8, !tbaa !19
  %38 = load ptr, ptr %11, align 8, !tbaa !15
  %39 = getelementptr inbounds nuw %struct.err_state_st, ptr %38, i32 0, i32 2
  %40 = load i32, ptr %39, align 4, !tbaa !17
  %41 = icmp eq i32 %37, %40
  br i1 %41, label %42, label %50

42:                                               ; preds = %27
  %43 = load ptr, ptr %11, align 8, !tbaa !15
  %44 = getelementptr inbounds nuw %struct.err_state_st, ptr %43, i32 0, i32 2
  %45 = load i32, ptr %44, align 4, !tbaa !17
  %46 = add i32 %45, 1
  %47 = urem i32 %46, 16
  %48 = load ptr, ptr %11, align 8, !tbaa !15
  %49 = getelementptr inbounds nuw %struct.err_state_st, ptr %48, i32 0, i32 2
  store i32 %47, ptr %49, align 4, !tbaa !17
  br label %50

50:                                               ; preds = %42, %27
  %51 = load ptr, ptr %11, align 8, !tbaa !15
  %52 = getelementptr inbounds nuw %struct.err_state_st, ptr %51, i32 0, i32 0
  %53 = load ptr, ptr %11, align 8, !tbaa !15
  %54 = getelementptr inbounds nuw %struct.err_state_st, ptr %53, i32 0, i32 1
  %55 = load i32, ptr %54, align 8, !tbaa !19
  %56 = zext i32 %55 to i64
  %57 = getelementptr inbounds nuw [16 x %struct.err_error_st], ptr %52, i64 0, i64 %56
  store ptr %57, ptr %12, align 8, !tbaa !20
  %58 = load ptr, ptr %12, align 8, !tbaa !20
  call void @err_clear(ptr noundef %58)
  %59 = load ptr, ptr %9, align 8, !tbaa !27
  %60 = load ptr, ptr %12, align 8, !tbaa !20
  %61 = getelementptr inbounds nuw %struct.err_error_st, ptr %60, i32 0, i32 0
  store ptr %59, ptr %61, align 8, !tbaa !26
  %62 = load i32, ptr %10, align 4, !tbaa !6
  %63 = trunc i32 %62 to i16
  %64 = load ptr, ptr %12, align 8, !tbaa !20
  %65 = getelementptr inbounds nuw %struct.err_error_st, ptr %64, i32 0, i32 3
  store i16 %63, ptr %65, align 4, !tbaa !28
  %66 = load i32, ptr %6, align 4, !tbaa !6
  %67 = and i32 %66, 255
  %68 = shl i32 %67, 24
  %69 = load i32, ptr %8, align 4, !tbaa !6
  %70 = and i32 %69, 4095
  %71 = or i32 %68, %70
  %72 = load ptr, ptr %12, align 8, !tbaa !20
  %73 = getelementptr inbounds nuw %struct.err_error_st, ptr %72, i32 0, i32 2
  store i32 %71, ptr %73, align 8, !tbaa !22
  store i32 0, ptr %13, align 4
  br label %74

74:                                               ; preds = %50, %17
  call void @llvm.lifetime.end.p0(i64 8, ptr %12) #12
  call void @llvm.lifetime.end.p0(i64 8, ptr %11) #12
  %75 = load i32, ptr %13, align 4
  switch i32 %75, label %77 [
    i32 0, label %76
    i32 1, label %76
  ]

76:                                               ; preds = %74, %74
  ret void

77:                                               ; preds = %74
  unreachable
}