; Function Attrs: nounwind uwtable
define hidden void @ERR_put_error(i32 noundef %0, i32 noundef %1, i32 noundef %2, ptr noundef %3, i32 noundef %4) local_unnamed_addr #0 {
  %6 = tail call ptr @CRYPTO_get_thread_local(i32 noundef 0) #17
  %7 = icmp eq ptr %6, null
  br i1 %7, label %8, label %err_get_state.exit

8:                                                ; preds = %5
  %calloc.i = tail call dereferenceable_or_null(400) ptr @calloc(i64 1, i64 400)
  %9 = icmp eq ptr %calloc.i, null
  br i1 %9, label %err_get_state.exit.thread, label %10

10:                                               ; preds = %8
  %11 = tail call i32 @CRYPTO_set_thread_local(i32 noundef 0, ptr noundef nonnull %calloc.i, ptr noundef nonnull @err_state_free) #17
  %.not.i = icmp eq i32 %11, 0
  br i1 %.not.i, label %err_get_state.exit.thread, label %err_get_state.exit

err_get_state.exit:                               ; preds = %5, %10
  %.06.i = phi ptr [ %6, %5 ], [ %calloc.i, %10 ]
  %12 = icmp eq i32 %0, 2
  %13 = icmp eq i32 %2, 0
  %or.cond = and i1 %12, %13
  br i1 %or.cond, label %14, label %17

14:                                               ; preds = %err_get_state.exit
  %15 = tail call ptr @__errno_location() #18
  %16 = load i32, ptr %15, align 4, !tbaa !22
  br label %17

17:                                               ; preds = %14, %err_get_state.exit
  %.0 = phi i32 [ %16, %14 ], [ %2, %err_get_state.exit ]
  %18 = getelementptr inbounds nuw i8, ptr %.06.i, i64 384
  %19 = load i32, ptr %18, align 8, !tbaa !12
  %20 = add i32 %19, 1
  %21 = and i32 %20, 15
  store i32 %21, ptr %18, align 8, !tbaa !12
  %22 = getelementptr inbounds nuw i8, ptr %.06.i, i64 388
  %23 = load i32, ptr %22, align 4, !tbaa !6
  %24 = icmp eq i32 %21, %23
  br i1 %24, label %25, label %28

25:                                               ; preds = %17
  %26 = add i32 %19, 2
  %27 = and i32 %26, 15
  store i32 %27, ptr %22, align 4, !tbaa !6
  br label %28

28:                                               ; preds = %25, %17
  %29 = zext nneg i32 %21 to i64
  %30 = getelementptr inbounds nuw [16 x %struct.err_error_st], ptr %.06.i, i64 0, i64 %29
  %31 = getelementptr inbounds nuw i8, ptr %30, i64 22
  %32 = load i8, ptr %31, align 2, !tbaa !17
  %33 = and i8 %32, 16
  %.not.i.i = icmp eq i8 %33, 0
  br i1 %.not.i.i, label %err_clear.exit, label %34

34:                                               ; preds = %28
  %35 = getelementptr inbounds nuw i8, ptr %30, i64 8
  %36 = load ptr, ptr %35, align 8, !tbaa !18
  tail call void @free(ptr noundef %36) #17
  br label %err_clear.exit

err_clear.exit:                                   ; preds = %28, %34
  %37 = getelementptr inbounds nuw i8, ptr %30, i64 8
  tail call void @llvm.memset.p0.i64(ptr noundef nonnull align 8 dereferenceable(24) %37, i8 0, i64 16, i1 false)
  store ptr %3, ptr %30, align 8, !tbaa !19
  %38 = trunc i32 %4 to i16
  %39 = getelementptr inbounds nuw i8, ptr %30, i64 20
  store i16 %38, ptr %39, align 4, !tbaa !21
  %40 = shl i32 %0, 24
  %41 = and i32 %.0, 4095
  %42 = or disjoint i32 %41, %40
  %43 = getelementptr inbounds nuw i8, ptr %30, i64 16
  store i32 %42, ptr %43, align 8, !tbaa !13
  br label %err_get_state.exit.thread

err_get_state.exit.thread:                        ; preds = %10, %8, %err_clear.exit
  ret void
}